target datalayout = "e-m:e-p270:32:32-p271:32:32-p272:64:64-i64:64-i128:128-f80:128-n8:16:32:64-S128"
target triple = "x86_64-pc-linux-gnu"

%struct.tag_AlsaPcmInfo = type { ptr, ptr, ptr, i32, i32, i32, i64, i16, i16, ptr }

; Function Attrs: nounwind uwtable
define hidden i32 @setStartThresholdNoCommit(ptr noundef %0, i32 noundef %1) #0 {
  %3 = alloca i32, align 4
  %4 = alloca ptr, align 8
  %5 = alloca i32, align 4
  %6 = alloca i32, align 4
  %7 = alloca i32, align 4
  store ptr %0, ptr %4, align 8
  store i32 %1, ptr %5, align 4
  %8 = load i32, ptr %5, align 4
  %9 = icmp ne i32 %8, 0
  br i1 %9, label %10, label %11

10:                                               ; preds = %2
  store i32 1, ptr %7, align 4
  br label %12

11:                                               ; preds = %2
  store i32 2000000000, ptr %7, align 4
  br label %12

12:                                               ; preds = %11, %10
  %13 = load ptr, ptr %4, align 8
  %14 = getelementptr inbounds %struct.tag_AlsaPcmInfo, ptr %13, i32 0, i32 0
  %15 = load ptr, ptr %14, align 8
  %16 = load ptr, ptr %4, align 8
  %17 = getelementptr inbounds %struct.tag_AlsaPcmInfo, ptr %16, i32 0, i32 2
  %18 = load ptr, ptr %17, align 8
  %19 = load i32, ptr %7, align 4
  %20 = sext i32 %19 to i64
  %21 = call i32 @snd_pcm_sw_params_set_start_threshold(ptr noundef %15, ptr noundef %18, i64 noundef %20)
  store i32 %21, ptr %6, align 4
  %22 = load i32, ptr %6, align 4
  %23 = icmp slt i32 %22, 0
  br i1 %23, label %24, label %25

24:                                               ; preds = %12
  store i32 0, ptr %3, align 4
  br label %26

25:                                               ; preds = %12
  store i32 1, ptr %3, align 4
  br label %26

26:                                               ; preds = %25, %24
  %27 = load i32, ptr %3, align 4
  ret i32 %27
}

; Function Attrs: nounwind uwtable
define hidden i32 @setSWParams(ptr noundef %0) #0 {
  %2 = alloca i32, align 4
  %3 = alloca ptr, align 8
  %4 = alloca i32, align 4
  store ptr %0, ptr %3, align 8
  %5 = load ptr, ptr %3, align 8
  %6 = getelementptr inbounds %struct.tag_AlsaPcmInfo, ptr %5, i32 0, i32 0
  %7 = load ptr, ptr %6, align 8
  %8 = load ptr, ptr %3, align 8
  %9 = getelementptr inbounds %struct.tag_AlsaPcmInfo, ptr %8, i32 0, i32 2
  %10 = load ptr, ptr %9, align 8
  %11 = call i32 @snd_pcm_sw_params_current(ptr noundef %7, ptr noundef %10)
  store i32 %11, ptr %4, align 4
  %12 = load i32, ptr %4, align 4
  %13 = icmp slt i32 %12, 0
  br i1 %13, label %14, label %15

14:                                               ; preds = %1
  store i32 0, ptr %2, align 4
  br label %46

15:                                               ; preds = %1
  %16 = load ptr, ptr %3, align 8
  %17 = call i32 @setStartThresholdNoCommit(ptr noundef %16, i32 noundef 0)
  %18 = icmp ne i32 %17, 0
  br i1 %18, label %20, label %19

19:                                               ; preds = %15
  store i32 0, ptr %2, align 4
  br label %46

20:                                               ; preds = %15
  %21 = load ptr, ptr %3, align 8
  %22 = getelementptr inbounds %struct.tag_AlsaPcmInfo, ptr %21, i32 0, i32 0
  %23 = load ptr, ptr %22, align 8
  %24 = load ptr, ptr %3, align 8
  %25 = getelementptr inbounds %struct.tag_AlsaPcmInfo, ptr %24, i32 0, i32 2
  %26 = load ptr, ptr %25, align 8
  %27 = load ptr, ptr %3, align 8
  %28 = getelementptr inbounds %struct.tag_AlsaPcmInfo, ptr %27, i32 0, i32 6
  %29 = load i64, ptr %28, align 8
  %30 = call i32 @snd_pcm_sw_params_set_avail_min(ptr noundef %23, ptr noundef %26, i64 noundef %29)
  store i32 %30, ptr %4, align 4
  %31 = load i32, ptr %4, align 4
  %32 = icmp slt i32 %31, 0
  br i1 %32, label %33, label %34

33:                                               ; preds = %20
  store i32 0, ptr %2, align 4
  br label %46

34:                                               ; preds = %20
  %35 = load ptr, ptr %3, align 8
  %36 = getelementptr inbounds %struct.tag_AlsaPcmInfo, ptr %35, i32 0, i32 0
  %37 = load ptr, ptr %36, align 8
  %38 = load ptr, ptr %3, align 8
  %39 = getelementptr inbounds %struct.tag_AlsaPcmInfo, ptr %38, i32 0, i32 2
  %40 = load ptr, ptr %39, align 8
  %41 = call i32 @snd_pcm_sw_params(ptr noundef %37, ptr noundef %40)
  store i32 %41, ptr %4, align 4
  %42 = load i32, ptr %4, align 4
  %43 = icmp slt i32 %42, 0
  br i1 %43, label %44, label %45

44:                                               ; preds = %34
  store i32 0, ptr %2, align 4
  br label %46

45:                                               ; preds = %34
  store i32 1, ptr %2, align 4
  br label %46

46:                                               ; preds = %45, %44, %33, %19, %14
  %47 = load i32, ptr %2, align 4
  ret i32 %47
}