; Function Attrs: nounwind uwtable
define hidden range(i32 0, 2) i32 @setSWParams(ptr nocapture noundef readonly %0) local_unnamed_addr #0 {
  %2 = load ptr, ptr %0, align 8
  %3 = getelementptr inbounds i8, ptr %0, i64 16
  %4 = load ptr, ptr %3, align 8
  %5 = tail call i32 @snd_pcm_sw_params_current(ptr noundef %2, ptr noundef %4) #8
  %6 = icmp slt i32 %5, 0
  br i1 %6, label %24, label %7

7:                                                ; preds = %1
  %8 = load ptr, ptr %0, align 8
  %9 = load ptr, ptr %3, align 8
  %10 = tail call i32 @snd_pcm_sw_params_set_start_threshold(ptr noundef %8, ptr noundef %9, i64 noundef 2000000000) #8
  %11 = icmp slt i32 %10, 0
  br i1 %11, label %24, label %12

12:                                               ; preds = %7
  %13 = load ptr, ptr %0, align 8
  %14 = load ptr, ptr %3, align 8
  %15 = getelementptr inbounds i8, ptr %0, i64 40
  %16 = load i64, ptr %15, align 8
  %17 = tail call i32 @snd_pcm_sw_params_set_avail_min(ptr noundef %13, ptr noundef %14, i64 noundef %16) #8
  %18 = icmp slt i32 %17, 0
  br i1 %18, label %24, label %19

19:                                               ; preds = %12
  %20 = load ptr, ptr %0, align 8
  %21 = load ptr, ptr %3, align 8
  %22 = tail call i32 @snd_pcm_sw_params(ptr noundef %20, ptr noundef %21) #8
  %23 = icmp sgt i32 %22, -1
  %. = zext i1 %23 to i32
  br label %24

24:                                               ; preds = %19, %12, %7, %1
  %.0 = phi i32 [ 0, %1 ], [ 0, %7 ], [ 0, %12 ], [ %., %19 ]
  ret i32 %.0
}